
EmbeddedSystems.elf:     file format elf32-avr

Sections:
Idx Name          Size      VMA       LMA       File off  Algn
  0 .data         00000042  00800100  0000068e  00000722  2**0
                  CONTENTS, ALLOC, LOAD, DATA
  1 .text         0000068e  00000000  00000000  00000094  2**1
                  CONTENTS, ALLOC, LOAD, READONLY, CODE
  2 .bss          00000206  00800142  00800142  00000764  2**0
                  ALLOC
  3 .comment      00000030  00000000  00000000  00000764  2**0
                  CONTENTS, READONLY
  4 .note.gnu.avr.deviceinfo 00000040  00000000  00000000  00000794  2**2
                  CONTENTS, READONLY
  5 .debug_aranges 000001a8  00000000  00000000  000007d4  2**0
                  CONTENTS, READONLY, DEBUGGING
  6 .debug_info   0000104f  00000000  00000000  0000097c  2**0
                  CONTENTS, READONLY, DEBUGGING
  7 .debug_abbrev 00000b30  00000000  00000000  000019cb  2**0
                  CONTENTS, READONLY, DEBUGGING
  8 .debug_line   00000b0c  00000000  00000000  000024fb  2**0
                  CONTENTS, READONLY, DEBUGGING
  9 .debug_frame  00000580  00000000  00000000  00003008  2**2
                  CONTENTS, READONLY, DEBUGGING
 10 .debug_str    000006a0  00000000  00000000  00003588  2**0
                  CONTENTS, READONLY, DEBUGGING
 11 .debug_loc    00000a96  00000000  00000000  00003c28  2**0
                  CONTENTS, READONLY, DEBUGGING
 12 .debug_ranges 00000158  00000000  00000000  000046be  2**0
                  CONTENTS, READONLY, DEBUGGING

Disassembly of section .text:

00000000 <__vectors>:
   0:	45 c0       	rjmp	.+138    	; 0x8c <__ctors_end>
   2:	00 00       	nop
   4:	60 c0       	rjmp	.+192    	; 0xc6 <__bad_interrupt>
   6:	00 00       	nop
   8:	5e c0       	rjmp	.+188    	; 0xc6 <__bad_interrupt>
   a:	00 00       	nop
   c:	5c c0       	rjmp	.+184    	; 0xc6 <__bad_interrupt>
   e:	00 00       	nop
  10:	5a c0       	rjmp	.+180    	; 0xc6 <__bad_interrupt>
  12:	00 00       	nop
  14:	58 c0       	rjmp	.+176    	; 0xc6 <__bad_interrupt>
  16:	00 00       	nop
  18:	56 c0       	rjmp	.+172    	; 0xc6 <__bad_interrupt>
  1a:	00 00       	nop
  1c:	54 c0       	rjmp	.+168    	; 0xc6 <__bad_interrupt>
  1e:	00 00       	nop
  20:	52 c0       	rjmp	.+164    	; 0xc6 <__bad_interrupt>
  22:	00 00       	nop
  24:	50 c0       	rjmp	.+160    	; 0xc6 <__bad_interrupt>
  26:	00 00       	nop
  28:	4e c0       	rjmp	.+156    	; 0xc6 <__bad_interrupt>
  2a:	00 00       	nop
  2c:	4c c0       	rjmp	.+152    	; 0xc6 <__bad_interrupt>
  2e:	00 00       	nop
  30:	4a c0       	rjmp	.+148    	; 0xc6 <__bad_interrupt>
  32:	00 00       	nop
  34:	48 c0       	rjmp	.+144    	; 0xc6 <__bad_interrupt>
  36:	00 00       	nop
  38:	46 c0       	rjmp	.+140    	; 0xc6 <__bad_interrupt>
  3a:	00 00       	nop
  3c:	44 c0       	rjmp	.+136    	; 0xc6 <__bad_interrupt>
  3e:	00 00       	nop
  40:	b9 c1       	rjmp	.+882    	; 0x3b4 <__vector_16>
  42:	00 00       	nop
  44:	40 c0       	rjmp	.+128    	; 0xc6 <__bad_interrupt>
  46:	00 00       	nop
  48:	3e c0       	rjmp	.+124    	; 0xc6 <__bad_interrupt>
  4a:	00 00       	nop
  4c:	3c c0       	rjmp	.+120    	; 0xc6 <__bad_interrupt>
  4e:	00 00       	nop
  50:	3a c0       	rjmp	.+116    	; 0xc6 <__bad_interrupt>
  52:	00 00       	nop
  54:	ca c2       	rjmp	.+1428   	; 0x5ea <__vector_21>
  56:	00 00       	nop
  58:	36 c0       	rjmp	.+108    	; 0xc6 <__bad_interrupt>
  5a:	00 00       	nop
  5c:	34 c0       	rjmp	.+104    	; 0xc6 <__bad_interrupt>
  5e:	00 00       	nop
  60:	32 c0       	rjmp	.+100    	; 0xc6 <__bad_interrupt>
  62:	00 00       	nop
  64:	30 c0       	rjmp	.+96     	; 0xc6 <__bad_interrupt>
  66:	00 00       	nop
  68:	2e c0       	rjmp	.+92     	; 0xc6 <__bad_interrupt>
  6a:	00 00       	nop
  6c:	2c c0       	rjmp	.+88     	; 0xc6 <__bad_interrupt>
  6e:	00 00       	nop
  70:	2a c0       	rjmp	.+84     	; 0xc6 <__bad_interrupt>
  72:	00 00       	nop
  74:	28 c0       	rjmp	.+80     	; 0xc6 <__bad_interrupt>
  76:	00 00       	nop
  78:	26 c0       	rjmp	.+76     	; 0xc6 <__bad_interrupt>
  7a:	00 00       	nop
  7c:	24 c0       	rjmp	.+72     	; 0xc6 <__bad_interrupt>
  7e:	00 00       	nop
  80:	22 c0       	rjmp	.+68     	; 0xc6 <__bad_interrupt>
  82:	00 00       	nop
  84:	20 c0       	rjmp	.+64     	; 0xc6 <__bad_interrupt>
  86:	00 00       	nop
  88:	1e c0       	rjmp	.+60     	; 0xc6 <__bad_interrupt>
	...

0000008c <__ctors_end>:
  8c:	11 24       	eor	r1, r1
  8e:	1f be       	out	0x3f, r1	; 63
  90:	cf ef       	ldi	r28, 0xFF	; 255
  92:	d0 e4       	ldi	r29, 0x40	; 64
  94:	de bf       	out	0x3e, r29	; 62
  96:	cd bf       	out	0x3d, r28	; 61

00000098 <__do_copy_data>:
  98:	11 e0       	ldi	r17, 0x01	; 1
  9a:	a0 e0       	ldi	r26, 0x00	; 0
  9c:	b1 e0       	ldi	r27, 0x01	; 1
  9e:	ee e8       	ldi	r30, 0x8E	; 142
  a0:	f6 e0       	ldi	r31, 0x06	; 6
  a2:	00 e0       	ldi	r16, 0x00	; 0
  a4:	0b bf       	out	0x3b, r16	; 59
  a6:	02 c0       	rjmp	.+4      	; 0xac <__do_copy_data+0x14>
  a8:	07 90       	elpm	r0, Z+
  aa:	0d 92       	st	X+, r0
  ac:	a2 34       	cpi	r26, 0x42	; 66
  ae:	b1 07       	cpc	r27, r17
  b0:	d9 f7       	brne	.-10     	; 0xa8 <__do_copy_data+0x10>

000000b2 <__do_clear_bss>:
  b2:	23 e0       	ldi	r18, 0x03	; 3
  b4:	a2 e4       	ldi	r26, 0x42	; 66
  b6:	b1 e0       	ldi	r27, 0x01	; 1
  b8:	01 c0       	rjmp	.+2      	; 0xbc <.do_clear_bss_start>

000000ba <.do_clear_bss_loop>:
  ba:	1d 92       	st	X+, r1

000000bc <.do_clear_bss_start>:
  bc:	a8 34       	cpi	r26, 0x48	; 72
  be:	b2 07       	cpc	r27, r18
  c0:	e1 f7       	brne	.-8      	; 0xba <.do_clear_bss_loop>
  c2:	9b d0       	rcall	.+310    	; 0x1fa <main>
  c4:	e2 c2       	rjmp	.+1476   	; 0x68a <_exit>

000000c6 <__bad_interrupt>:
  c6:	9c cf       	rjmp	.-200    	; 0x0 <__vectors>

000000c8 <Led_init>:
void Led5_On(void) {
    PORTB |= (1 << 3);
}
void Led5_Off(void) {
    PORTB &= ~(1 << 3);
}
  c8:	cf 93       	push	r28
  ca:	df 93       	push	r29
  cc:	1f 92       	push	r1
  ce:	cd b7       	in	r28, 0x3d	; 61
  d0:	de b7       	in	r29, 0x3e	; 62
  d2:	89 83       	std	Y+1, r24	; 0x01
  d4:	84 e2       	ldi	r24, 0x24	; 36
  d6:	90 e0       	ldi	r25, 0x00	; 0
  d8:	2f ef       	ldi	r18, 0xFF	; 255
  da:	fc 01       	movw	r30, r24
  dc:	20 83       	st	Z, r18
  de:	85 e2       	ldi	r24, 0x25	; 37
  e0:	90 e0       	ldi	r25, 0x00	; 0
  e2:	fc 01       	movw	r30, r24
  e4:	10 82       	st	Z, r1
  e6:	89 81       	ldd	r24, Y+1	; 0x01
  e8:	88 23       	and	r24, r24
  ea:	91 f0       	breq	.+36     	; 0x110 <Led_init+0x48>
  ec:	8a e2       	ldi	r24, 0x2A	; 42
  ee:	90 e0       	ldi	r25, 0x00	; 0
  f0:	2a e2       	ldi	r18, 0x2A	; 42
  f2:	30 e0       	ldi	r19, 0x00	; 0
  f4:	f9 01       	movw	r30, r18
  f6:	20 81       	ld	r18, Z
  f8:	2f 61       	ori	r18, 0x1F	; 31
  fa:	fc 01       	movw	r30, r24
  fc:	20 83       	st	Z, r18
  fe:	8b e2       	ldi	r24, 0x2B	; 43
 100:	90 e0       	ldi	r25, 0x00	; 0
 102:	2b e2       	ldi	r18, 0x2B	; 43
 104:	30 e0       	ldi	r19, 0x00	; 0
 106:	f9 01       	movw	r30, r18
 108:	20 81       	ld	r18, Z
 10a:	20 7e       	andi	r18, 0xE0	; 224
 10c:	fc 01       	movw	r30, r24
 10e:	20 83       	st	Z, r18
 110:	00 00       	nop
 112:	0f 90       	pop	r0
 114:	df 91       	pop	r29
 116:	cf 91       	pop	r28
 118:	08 95       	ret

0000011a <Led1_On>:
 11a:	cf 93       	push	r28
 11c:	df 93       	push	r29
 11e:	cd b7       	in	r28, 0x3d	; 61
 120:	de b7       	in	r29, 0x3e	; 62
 122:	85 e2       	ldi	r24, 0x25	; 37
 124:	90 e0       	ldi	r25, 0x00	; 0
 126:	25 e2       	ldi	r18, 0x25	; 37
 128:	30 e0       	ldi	r19, 0x00	; 0
 12a:	f9 01       	movw	r30, r18
 12c:	20 81       	ld	r18, Z
 12e:	20 68       	ori	r18, 0x80	; 128
 130:	fc 01       	movw	r30, r24
 132:	20 83       	st	Z, r18
 134:	00 00       	nop
 136:	df 91       	pop	r29
 138:	cf 91       	pop	r28
 13a:	08 95       	ret

0000013c <Led1_Off>:
 13c:	cf 93       	push	r28
 13e:	df 93       	push	r29
 140:	cd b7       	in	r28, 0x3d	; 61
 142:	de b7       	in	r29, 0x3e	; 62
 144:	85 e2       	ldi	r24, 0x25	; 37
 146:	90 e0       	ldi	r25, 0x00	; 0
 148:	25 e2       	ldi	r18, 0x25	; 37
 14a:	30 e0       	ldi	r19, 0x00	; 0
 14c:	f9 01       	movw	r30, r18
 14e:	20 81       	ld	r18, Z
 150:	2f 77       	andi	r18, 0x7F	; 127
 152:	fc 01       	movw	r30, r24
 154:	20 83       	st	Z, r18
 156:	00 00       	nop
 158:	df 91       	pop	r29
 15a:	cf 91       	pop	r28
 15c:	08 95       	ret

0000015e <Led6_On>:

/**
led6 - ioB2
*/
void Led6_On(void) {
 15e:	cf 93       	push	r28
 160:	df 93       	push	r29
 162:	cd b7       	in	r28, 0x3d	; 61
 164:	de b7       	in	r29, 0x3e	; 62
    PORTB |= (1 << 2);
 166:	85 e2       	ldi	r24, 0x25	; 37
 168:	90 e0       	ldi	r25, 0x00	; 0
 16a:	25 e2       	ldi	r18, 0x25	; 37
 16c:	30 e0       	ldi	r19, 0x00	; 0
 16e:	f9 01       	movw	r30, r18
 170:	20 81       	ld	r18, Z
 172:	24 60       	ori	r18, 0x04	; 4
 174:	fc 01       	movw	r30, r24
 176:	20 83       	st	Z, r18
}
 178:	00 00       	nop
 17a:	df 91       	pop	r29
 17c:	cf 91       	pop	r28
 17e:	08 95       	ret

00000180 <Led6_Off>:
void Led6_Off(void) {
 180:	cf 93       	push	r28
 182:	df 93       	push	r29
 184:	cd b7       	in	r28, 0x3d	; 61
 186:	de b7       	in	r29, 0x3e	; 62
    PORTB &= ~(1 << 2);
 188:	85 e2       	ldi	r24, 0x25	; 37
 18a:	90 e0       	ldi	r25, 0x00	; 0
 18c:	25 e2       	ldi	r18, 0x25	; 37
 18e:	30 e0       	ldi	r19, 0x00	; 0
 190:	f9 01       	movw	r30, r18
 192:	20 81       	ld	r18, Z
 194:	2b 7f       	andi	r18, 0xFB	; 251
 196:	fc 01       	movw	r30, r24
 198:	20 83       	st	Z, r18
}
 19a:	00 00       	nop
 19c:	df 91       	pop	r29
 19e:	cf 91       	pop	r28
 1a0:	08 95       	ret

000001a2 <Taster_init>:
 ---------------------
 - DDR Reg has to be set to 0
 - PORT Reg has to be set to 1
 -> Pin is input with pull-up
 */
void Taster_init() {
 1a2:	cf 93       	push	r28
 1a4:	df 93       	push	r29
 1a6:	cd b7       	in	r28, 0x3d	; 61
 1a8:	de b7       	in	r29, 0x3e	; 62
    
    // set to inputs
    DDRC &= ~(1 << 2);
 1aa:	87 e2       	ldi	r24, 0x27	; 39
 1ac:	90 e0       	ldi	r25, 0x00	; 0
 1ae:	27 e2       	ldi	r18, 0x27	; 39
 1b0:	30 e0       	ldi	r19, 0x00	; 0
 1b2:	f9 01       	movw	r30, r18
 1b4:	20 81       	ld	r18, Z
 1b6:	2b 7f       	andi	r18, 0xFB	; 251
 1b8:	fc 01       	movw	r30, r24
 1ba:	20 83       	st	Z, r18
    DDRD &= ~( (1 << 7) | (1 << 6) | (1 << 5) );
 1bc:	8a e2       	ldi	r24, 0x2A	; 42
 1be:	90 e0       	ldi	r25, 0x00	; 0
 1c0:	2a e2       	ldi	r18, 0x2A	; 42
 1c2:	30 e0       	ldi	r19, 0x00	; 0
 1c4:	f9 01       	movw	r30, r18
 1c6:	20 81       	ld	r18, Z
 1c8:	2f 71       	andi	r18, 0x1F	; 31
 1ca:	fc 01       	movw	r30, r24
 1cc:	20 83       	st	Z, r18
    
    // enable pull-up
    PORTC |= (1 << 2);
 1ce:	88 e2       	ldi	r24, 0x28	; 40
 1d0:	90 e0       	ldi	r25, 0x00	; 0
 1d2:	28 e2       	ldi	r18, 0x28	; 40
 1d4:	30 e0       	ldi	r19, 0x00	; 0
 1d6:	f9 01       	movw	r30, r18
 1d8:	20 81       	ld	r18, Z
 1da:	24 60       	ori	r18, 0x04	; 4
 1dc:	fc 01       	movw	r30, r24
 1de:	20 83       	st	Z, r18
    PORTD |= (1 << 7) | (1 << 6) | (1 << 5);
 1e0:	8b e2       	ldi	r24, 0x2B	; 43
 1e2:	90 e0       	ldi	r25, 0x00	; 0
 1e4:	2b e2       	ldi	r18, 0x2B	; 43
 1e6:	30 e0       	ldi	r19, 0x00	; 0
 1e8:	f9 01       	movw	r30, r18
 1ea:	20 81       	ld	r18, Z
 1ec:	20 6e       	ori	r18, 0xE0	; 224
 1ee:	fc 01       	movw	r30, r24
 1f0:	20 83       	st	Z, r18
}
 1f2:	00 00       	nop
 1f4:	df 91       	pop	r29
 1f6:	cf 91       	pop	r28
 1f8:	08 95       	ret

000001fa <main>:
#include "uart/Uart.h"
#include <avr/interrupt.h>

#define CLK_F_MHZ 16

int main(void) {
 1fa:	cf 93       	push	r28
 1fc:	df 93       	push	r29
 1fe:	00 d0       	rcall	.+0      	; 0x200 <main+0x6>
 200:	cd b7       	in	r28, 0x3d	; 61
 202:	de b7       	in	r29, 0x3e	; 62
	
    cli();
 204:	f8 94       	cli
    Led_init(0);	// Don't set LEDs at PORTD
 206:	80 e0       	ldi	r24, 0x00	; 0
 208:	5f df       	rcall	.-322    	; 0xc8 <Led_init>
	Taster_init();
 20a:	cb df       	rcall	.-106    	; 0x1a2 <Taster_init>
    Timer_init(CLK_F_MHZ); // Init timer with 16MHZ clock
 20c:	80 e1       	ldi	r24, 0x10	; 16
 20e:	27 d0       	rcall	.+78     	; 0x25e <Timer_init>
	uart_init_isr();
 210:	96 d1       	rcall	.+812    	; 0x53e <uart_init_isr>
	sei();
 212:	78 94       	sei
    
    uint16_t timeVarMain = 0;
 214:	1a 82       	std	Y+2, r1	; 0x02
 216:	19 82       	std	Y+1, r1	; 0x01
	
    while (1) {
        
        if((Timer_getTick() - timeVarMain) >= 100){
 218:	b9 d0       	rcall	.+370    	; 0x38c <Timer_getTick>
 21a:	9c 01       	movw	r18, r24
 21c:	89 81       	ldd	r24, Y+1	; 0x01
 21e:	9a 81       	ldd	r25, Y+2	; 0x02
 220:	a9 01       	movw	r20, r18
 222:	48 1b       	sub	r20, r24
 224:	59 0b       	sbc	r21, r25
 226:	ca 01       	movw	r24, r20
 228:	84 36       	cpi	r24, 0x64	; 100
 22a:	91 05       	cpc	r25, r1
 22c:	a8 f3       	brcs	.-22     	; 0x218 <main+0x1e>
            timeVarMain = Timer_getTick();
 22e:	ae d0       	rcall	.+348    	; 0x38c <Timer_getTick>
 230:	9a 83       	std	Y+2, r25	; 0x02
 232:	89 83       	std	Y+1, r24	; 0x01
            
            if (uart_send_isr("Hallo Welt!\n") == 0 && uart_send_isr("Kannst du mich hoeren?\n") == 0 && uart_send_isr("Das sieht sehr gut aus!!!!\n") == 0 ) {
 234:	80 e0       	ldi	r24, 0x00	; 0
 236:	91 e0       	ldi	r25, 0x01	; 1
 238:	94 d1       	rcall	.+808    	; 0x562 <uart_send_isr>
 23a:	89 2b       	or	r24, r25
 23c:	69 f4       	brne	.+26     	; 0x258 <main+0x5e>
 23e:	8d e0       	ldi	r24, 0x0D	; 13
 240:	91 e0       	ldi	r25, 0x01	; 1
 242:	8f d1       	rcall	.+798    	; 0x562 <uart_send_isr>
 244:	89 2b       	or	r24, r25
 246:	41 f4       	brne	.+16     	; 0x258 <main+0x5e>
 248:	85 e2       	ldi	r24, 0x25	; 37
 24a:	91 e0       	ldi	r25, 0x01	; 1
 24c:	8a d1       	rcall	.+788    	; 0x562 <uart_send_isr>
                Led6_On();
 24e:	89 2b       	or	r24, r25
 250:	19 f4       	brne	.+6      	; 0x258 <main+0x5e>
                Led1_Off();
 252:	85 df       	rcall	.-246    	; 0x15e <Led6_On>
 254:	73 df       	rcall	.-282    	; 0x13c <Led1_Off>
 256:	02 c0       	rjmp	.+4      	; 0x25c <main+0x62>
            }else {
                Led6_Off();
 258:	93 df       	rcall	.-218    	; 0x180 <Led6_Off>
 25a:	5f df       	rcall	.-322    	; 0x11a <Led1_On>
                Led1_On();
 25c:	dd cf       	rjmp	.-70     	; 0x218 <main+0x1e>

0000025e <Timer_init>:
 25e:	cf 93       	push	r28
            }
        }
        
        //trafficLight(0);
        //playground();
    }
 260:	df 93       	push	r29
    }
    
    TIMSK0 &= ~(1 << OCIE0B);   // disable Output Compare Match B Interrupt
    TIMSK0 |= (1 << OCIE0A);    // enable Output Compare Match A Interrupt
    TIMSK0 &= ~(1 << TOIE0);    // disable timer overflow interrupt
}
 262:	1f 92       	push	r1
 264:	cd b7       	in	r28, 0x3d	; 61
 266:	de b7       	in	r29, 0x3e	; 62
 268:	89 83       	std	Y+1, r24	; 0x01
 26a:	89 81       	ldd	r24, Y+1	; 0x01
 26c:	88 2f       	mov	r24, r24
 26e:	90 e0       	ldi	r25, 0x00	; 0
 270:	05 d0       	rcall	.+10     	; 0x27c <Timer_init_withoutStruct>
 272:	00 00       	nop
 274:	0f 90       	pop	r0
 276:	df 91       	pop	r29
 278:	cf 91       	pop	r28
 27a:	08 95       	ret

0000027c <Timer_init_withoutStruct>:

void Timer_init_withoutStruct(uint8_t clockFreqMhz) {
 27c:	cf 93       	push	r28
 27e:	df 93       	push	r29
 280:	1f 92       	push	r1
 282:	cd b7       	in	r28, 0x3d	; 61
 284:	de b7       	in	r29, 0x3e	; 62
 286:	89 83       	std	Y+1, r24	; 0x01
    // datasheet page 97
    // set mode to clear timer on compare (CTC)
    TCCR0B &= ~(1 << WGM02);
 288:	85 e4       	ldi	r24, 0x45	; 69
 28a:	90 e0       	ldi	r25, 0x00	; 0
 28c:	25 e4       	ldi	r18, 0x45	; 69
 28e:	30 e0       	ldi	r19, 0x00	; 0
 290:	f9 01       	movw	r30, r18
 292:	20 81       	ld	r18, Z
 294:	27 7f       	andi	r18, 0xF7	; 247
 296:	fc 01       	movw	r30, r24
 298:	20 83       	st	Z, r18
    TCCR0A |= (1 << WGM01);
 29a:	84 e4       	ldi	r24, 0x44	; 68
 29c:	90 e0       	ldi	r25, 0x00	; 0
 29e:	24 e4       	ldi	r18, 0x44	; 68
 2a0:	30 e0       	ldi	r19, 0x00	; 0
 2a2:	f9 01       	movw	r30, r18
 2a4:	20 81       	ld	r18, Z
 2a6:	22 60       	ori	r18, 0x02	; 2
 2a8:	fc 01       	movw	r30, r24
 2aa:	20 83       	st	Z, r18
    TCCR0A &= ~(1 << WGM00);
 2ac:	84 e4       	ldi	r24, 0x44	; 68
 2ae:	90 e0       	ldi	r25, 0x00	; 0
 2b0:	24 e4       	ldi	r18, 0x44	; 68
 2b2:	30 e0       	ldi	r19, 0x00	; 0
 2b4:	f9 01       	movw	r30, r18
 2b6:	20 81       	ld	r18, Z
 2b8:	2e 7f       	andi	r18, 0xFE	; 254
 2ba:	fc 01       	movw	r30, r24
 2bc:	20 83       	st	Z, r18
    
    
    switch (clockFreqMhz) {
 2be:	89 81       	ldd	r24, Y+1	; 0x01
 2c0:	88 2f       	mov	r24, r24
 2c2:	90 e0       	ldi	r25, 0x00	; 0
 2c4:	40 97       	sbiw	r24, 0x10	; 16
 2c6:	09 f5       	brne	.+66     	; 0x30a <Timer_init_withoutStruct+0x8e>
        case 16:
            // extern osc (16 MHZ)
            
            // set OCR0A-reg (top value of timer)
            OCR0A = 249;   // dez 249; range 0 - 249 -> 250 cycles till interrupt
 2c8:	87 e4       	ldi	r24, 0x47	; 71
 2ca:	90 e0       	ldi	r25, 0x00	; 0
 2cc:	29 ef       	ldi	r18, 0xF9	; 249
 2ce:	fc 01       	movw	r30, r24
 2d0:	20 83       	st	Z, r18
            
            // set prescaler to 1/64
            TCCR0B &= ~(1 << CS02);
 2d2:	85 e4       	ldi	r24, 0x45	; 69
 2d4:	90 e0       	ldi	r25, 0x00	; 0
 2d6:	25 e4       	ldi	r18, 0x45	; 69
 2d8:	30 e0       	ldi	r19, 0x00	; 0
 2da:	f9 01       	movw	r30, r18
 2dc:	20 81       	ld	r18, Z
 2de:	2b 7f       	andi	r18, 0xFB	; 251
 2e0:	fc 01       	movw	r30, r24
 2e2:	20 83       	st	Z, r18
            TCCR0B |= (1 << CS01);
 2e4:	85 e4       	ldi	r24, 0x45	; 69
 2e6:	90 e0       	ldi	r25, 0x00	; 0
 2e8:	25 e4       	ldi	r18, 0x45	; 69
 2ea:	30 e0       	ldi	r19, 0x00	; 0
 2ec:	f9 01       	movw	r30, r18
 2ee:	20 81       	ld	r18, Z
 2f0:	22 60       	ori	r18, 0x02	; 2
 2f2:	fc 01       	movw	r30, r24
 2f4:	20 83       	st	Z, r18
            TCCR0B |= (1 << CS00);
 2f6:	85 e4       	ldi	r24, 0x45	; 69
 2f8:	90 e0       	ldi	r25, 0x00	; 0
 2fa:	25 e4       	ldi	r18, 0x45	; 69
 2fc:	30 e0       	ldi	r19, 0x00	; 0
 2fe:	f9 01       	movw	r30, r18
 300:	20 81       	ld	r18, Z
 302:	21 60       	ori	r18, 0x01	; 1
 304:	fc 01       	movw	r30, r24
 306:	20 83       	st	Z, r18
            break;
 308:	21 c0       	rjmp	.+66     	; 0x34c <Timer_init_withoutStruct+0xd0>
            
        default:
            // inter osc (8 MHZ divided by 8 -> 1 MHZ clock)
            
            // set OCR0A-reg (top value of timer)
            OCR0A = 0x7C;   // dez 124; range 0 - 124 -> 125 cycles till interrupt
 30a:	87 e4       	ldi	r24, 0x47	; 71
 30c:	90 e0       	ldi	r25, 0x00	; 0
 30e:	2c e7       	ldi	r18, 0x7C	; 124
 310:	fc 01       	movw	r30, r24
 312:	20 83       	st	Z, r18
            
            // set prescaler to 1/8
            TCCR0B &= ~(1 << CS02);
 314:	85 e4       	ldi	r24, 0x45	; 69
 316:	90 e0       	ldi	r25, 0x00	; 0
 318:	25 e4       	ldi	r18, 0x45	; 69
 31a:	30 e0       	ldi	r19, 0x00	; 0
 31c:	f9 01       	movw	r30, r18
 31e:	20 81       	ld	r18, Z
 320:	2b 7f       	andi	r18, 0xFB	; 251
 322:	fc 01       	movw	r30, r24
 324:	20 83       	st	Z, r18
            TCCR0B |= (1 << CS01);
 326:	85 e4       	ldi	r24, 0x45	; 69
 328:	90 e0       	ldi	r25, 0x00	; 0
 32a:	25 e4       	ldi	r18, 0x45	; 69
 32c:	30 e0       	ldi	r19, 0x00	; 0
 32e:	f9 01       	movw	r30, r18
 330:	20 81       	ld	r18, Z
 332:	22 60       	ori	r18, 0x02	; 2
 334:	fc 01       	movw	r30, r24
 336:	20 83       	st	Z, r18
            TCCR0B &= ~(1 << CS00);
 338:	85 e4       	ldi	r24, 0x45	; 69
 33a:	90 e0       	ldi	r25, 0x00	; 0
 33c:	25 e4       	ldi	r18, 0x45	; 69
 33e:	30 e0       	ldi	r19, 0x00	; 0
 340:	f9 01       	movw	r30, r18
 342:	20 81       	ld	r18, Z
 344:	2e 7f       	andi	r18, 0xFE	; 254
 346:	fc 01       	movw	r30, r24
 348:	20 83       	st	Z, r18
            break;
 34a:	00 00       	nop
    }
    
    TIMSK0 &= ~(1 << OCIE0B);   // disable Output Compare Match B Interrupt
 34c:	8e e6       	ldi	r24, 0x6E	; 110
 34e:	90 e0       	ldi	r25, 0x00	; 0
 350:	2e e6       	ldi	r18, 0x6E	; 110
 352:	30 e0       	ldi	r19, 0x00	; 0
 354:	f9 01       	movw	r30, r18
 356:	20 81       	ld	r18, Z
 358:	2b 7f       	andi	r18, 0xFB	; 251
 35a:	fc 01       	movw	r30, r24
 35c:	20 83       	st	Z, r18
    TIMSK0 |= (1 << OCIE0A);    // enable Output Compare Match A Interrupt
 35e:	8e e6       	ldi	r24, 0x6E	; 110
 360:	90 e0       	ldi	r25, 0x00	; 0
 362:	2e e6       	ldi	r18, 0x6E	; 110
 364:	30 e0       	ldi	r19, 0x00	; 0
 366:	f9 01       	movw	r30, r18
 368:	20 81       	ld	r18, Z
 36a:	22 60       	ori	r18, 0x02	; 2
 36c:	fc 01       	movw	r30, r24
 36e:	20 83       	st	Z, r18
    TIMSK0 &= ~(1 << TOIE0);    // disable timer overflow interrupt
 370:	8e e6       	ldi	r24, 0x6E	; 110
 372:	90 e0       	ldi	r25, 0x00	; 0
 374:	2e e6       	ldi	r18, 0x6E	; 110
 376:	30 e0       	ldi	r19, 0x00	; 0
 378:	f9 01       	movw	r30, r18
 37a:	20 81       	ld	r18, Z
 37c:	2e 7f       	andi	r18, 0xFE	; 254
 37e:	fc 01       	movw	r30, r24
 380:	20 83       	st	Z, r18
}
 382:	00 00       	nop
 384:	0f 90       	pop	r0
 386:	df 91       	pop	r29
 388:	cf 91       	pop	r28
 38a:	08 95       	ret

0000038c <Timer_getTick>:

uint16_t Timer_getTick() {
 38c:	cf 93       	push	r28
 38e:	df 93       	push	r29
 390:	00 d0       	rcall	.+0      	; 0x392 <Timer_getTick+0x6>
 392:	cd b7       	in	r28, 0x3d	; 61
 394:	de b7       	in	r29, 0x3e	; 62
    // disable global interrupt
    cli();
 396:	f8 94       	cli
    
    // store timer_count in a temp int that can't get changed by ISR
    uint16_t temp_timer_count = timer_count;
 398:	80 91 42 01 	lds	r24, 0x0142	; 0x800142 <__data_end>
 39c:	90 91 43 01 	lds	r25, 0x0143	; 0x800143 <__data_end+0x1>
 3a0:	9a 83       	std	Y+2, r25	; 0x02
 3a2:	89 83       	std	Y+1, r24	; 0x01
    
    // enable global interrupt
    sei();
 3a4:	78 94       	sei

    return temp_timer_count;
 3a6:	89 81       	ldd	r24, Y+1	; 0x01
 3a8:	9a 81       	ldd	r25, Y+2	; 0x02
}
 3aa:	0f 90       	pop	r0
 3ac:	0f 90       	pop	r0
 3ae:	df 91       	pop	r29
 3b0:	cf 91       	pop	r28
 3b2:	08 95       	ret

000003b4 <__vector_16>:
 ( not used atm)
 Timer compare A interrput:
 - increase timer_count
 - if timer_count is at max of uint16, set it to 0
 */
ISR(TIMER0_COMPA_vect){
 3b4:	1f 92       	push	r1
 3b6:	0f 92       	push	r0
 3b8:	00 90 5f 00 	lds	r0, 0x005F	; 0x80005f <__TEXT_REGION_LENGTH__+0x7e005f>
 3bc:	0f 92       	push	r0
 3be:	11 24       	eor	r1, r1
 3c0:	8f 93       	push	r24
 3c2:	9f 93       	push	r25
 3c4:	cf 93       	push	r28
 3c6:	df 93       	push	r29
 3c8:	cd b7       	in	r28, 0x3d	; 61
 3ca:	de b7       	in	r29, 0x3e	; 62
    timer_count++;
 3cc:	80 91 42 01 	lds	r24, 0x0142	; 0x800142 <__data_end>
 3d0:	90 91 43 01 	lds	r25, 0x0143	; 0x800143 <__data_end+0x1>
 3d4:	01 96       	adiw	r24, 0x01	; 1
 3d6:	90 93 43 01 	sts	0x0143, r25	; 0x800143 <__data_end+0x1>
 3da:	80 93 42 01 	sts	0x0142, r24	; 0x800142 <__data_end>
}
 3de:	00 00       	nop
 3e0:	df 91       	pop	r29
 3e2:	cf 91       	pop	r28
 3e4:	9f 91       	pop	r25
 3e6:	8f 91       	pop	r24
 3e8:	0f 90       	pop	r0
 3ea:	00 92 5f 00 	sts	0x005F, r0	; 0x80005f <__TEXT_REGION_LENGTH__+0x7e005f>
 3ee:	0f 90       	pop	r0
 3f0:	1f 90       	pop	r1
 3f2:	18 95       	reti

000003f4 <buff_put>:
    /* Wait for data to be received */
    while ( !(UCSR0A & (1<<RXC0)) )
        ;
    /* Get and return received data from buffer */
    return UDR0;
}
 3f4:	cf 93       	push	r28
 3f6:	df 93       	push	r29
 3f8:	1f 92       	push	r1
 3fa:	cd b7       	in	r28, 0x3d	; 61
 3fc:	de b7       	in	r29, 0x3e	; 62
 3fe:	89 83       	std	Y+1, r24	; 0x01
 400:	80 91 46 03 	lds	r24, 0x0346	; 0x800346 <buffer+0x202>
 404:	90 91 47 03 	lds	r25, 0x0347	; 0x800347 <buffer+0x203>
 408:	9c 01       	movw	r18, r24
 40a:	2f 5f       	subi	r18, 0xFF	; 255
 40c:	3f 4f       	sbci	r19, 0xFF	; 255
 40e:	80 91 44 03 	lds	r24, 0x0344	; 0x800344 <buffer+0x200>
 412:	90 91 45 03 	lds	r25, 0x0345	; 0x800345 <buffer+0x201>
 416:	28 17       	cp	r18, r24
 418:	39 07       	cpc	r19, r25
 41a:	69 f0       	breq	.+26     	; 0x436 <__LOCK_REGION_LENGTH__+0x36>
 41c:	80 91 44 03 	lds	r24, 0x0344	; 0x800344 <buffer+0x200>
 420:	90 91 45 03 	lds	r25, 0x0345	; 0x800345 <buffer+0x201>
 424:	89 2b       	or	r24, r25
 426:	49 f4       	brne	.+18     	; 0x43a <__LOCK_REGION_LENGTH__+0x3a>
 428:	80 91 46 03 	lds	r24, 0x0346	; 0x800346 <buffer+0x202>
 42c:	90 91 47 03 	lds	r25, 0x0347	; 0x800347 <buffer+0x203>
 430:	8f 3f       	cpi	r24, 0xFF	; 255
 432:	91 40       	sbci	r25, 0x01	; 1
 434:	11 f4       	brne	.+4      	; 0x43a <__LOCK_REGION_LENGTH__+0x3a>
 436:	81 e0       	ldi	r24, 0x01	; 1
 438:	1e c0       	rjmp	.+60     	; 0x476 <__LOCK_REGION_LENGTH__+0x76>
 43a:	80 91 46 03 	lds	r24, 0x0346	; 0x800346 <buffer+0x202>
 43e:	90 91 47 03 	lds	r25, 0x0347	; 0x800347 <buffer+0x203>
 442:	8c 5b       	subi	r24, 0xBC	; 188
 444:	9e 4f       	sbci	r25, 0xFE	; 254
 446:	29 81       	ldd	r18, Y+1	; 0x01
 448:	fc 01       	movw	r30, r24
 44a:	20 83       	st	Z, r18
 44c:	80 91 46 03 	lds	r24, 0x0346	; 0x800346 <buffer+0x202>
 450:	90 91 47 03 	lds	r25, 0x0347	; 0x800347 <buffer+0x203>
 454:	01 96       	adiw	r24, 0x01	; 1
 456:	90 93 47 03 	sts	0x0347, r25	; 0x800347 <buffer+0x203>
 45a:	80 93 46 03 	sts	0x0346, r24	; 0x800346 <buffer+0x202>
 45e:	80 91 46 03 	lds	r24, 0x0346	; 0x800346 <buffer+0x202>
 462:	90 91 47 03 	lds	r25, 0x0347	; 0x800347 <buffer+0x203>
 466:	81 15       	cp	r24, r1
 468:	92 40       	sbci	r25, 0x02	; 2
 46a:	20 f0       	brcs	.+8      	; 0x474 <__LOCK_REGION_LENGTH__+0x74>
 46c:	10 92 47 03 	sts	0x0347, r1	; 0x800347 <buffer+0x203>
 470:	10 92 46 03 	sts	0x0346, r1	; 0x800346 <buffer+0x202>
 474:	80 e0       	ldi	r24, 0x00	; 0
 476:	0f 90       	pop	r0
 478:	df 91       	pop	r29
 47a:	cf 91       	pop	r28
 47c:	08 95       	ret

0000047e <buff_get>:
 47e:	cf 93       	push	r28
 480:	df 93       	push	r29
 482:	00 d0       	rcall	.+0      	; 0x484 <buff_get+0x6>
 484:	cd b7       	in	r28, 0x3d	; 61
 486:	de b7       	in	r29, 0x3e	; 62
 488:	9a 83       	std	Y+2, r25	; 0x02
 48a:	89 83       	std	Y+1, r24	; 0x01
 48c:	20 91 44 03 	lds	r18, 0x0344	; 0x800344 <buffer+0x200>
 490:	30 91 45 03 	lds	r19, 0x0345	; 0x800345 <buffer+0x201>
 494:	80 91 46 03 	lds	r24, 0x0346	; 0x800346 <buffer+0x202>
 498:	90 91 47 03 	lds	r25, 0x0347	; 0x800347 <buffer+0x203>
 49c:	28 17       	cp	r18, r24
 49e:	39 07       	cpc	r19, r25
 4a0:	11 f4       	brne	.+4      	; 0x4a6 <buff_get+0x28>
 4a2:	81 e0       	ldi	r24, 0x01	; 1
 4a4:	21 c0       	rjmp	.+66     	; 0x4e8 <buff_get+0x6a>
 4a6:	80 91 44 03 	lds	r24, 0x0344	; 0x800344 <buffer+0x200>
 4aa:	90 91 45 03 	lds	r25, 0x0345	; 0x800345 <buffer+0x201>
 4ae:	8c 5b       	subi	r24, 0xBC	; 188
 4b0:	9e 4f       	sbci	r25, 0xFE	; 254
 4b2:	fc 01       	movw	r30, r24
 4b4:	20 81       	ld	r18, Z
 4b6:	89 81       	ldd	r24, Y+1	; 0x01
 4b8:	9a 81       	ldd	r25, Y+2	; 0x02
 4ba:	fc 01       	movw	r30, r24
 4bc:	20 83       	st	Z, r18
 4be:	80 91 44 03 	lds	r24, 0x0344	; 0x800344 <buffer+0x200>
 4c2:	90 91 45 03 	lds	r25, 0x0345	; 0x800345 <buffer+0x201>
 4c6:	01 96       	adiw	r24, 0x01	; 1
 4c8:	90 93 45 03 	sts	0x0345, r25	; 0x800345 <buffer+0x201>
 4cc:	80 93 44 03 	sts	0x0344, r24	; 0x800344 <buffer+0x200>
 4d0:	80 91 44 03 	lds	r24, 0x0344	; 0x800344 <buffer+0x200>
 4d4:	90 91 45 03 	lds	r25, 0x0345	; 0x800345 <buffer+0x201>
 4d8:	81 15       	cp	r24, r1
 4da:	92 40       	sbci	r25, 0x02	; 2
 4dc:	20 f0       	brcs	.+8      	; 0x4e6 <buff_get+0x68>
 4de:	10 92 45 03 	sts	0x0345, r1	; 0x800345 <buffer+0x201>
 4e2:	10 92 44 03 	sts	0x0344, r1	; 0x800344 <buffer+0x200>
 4e6:	80 e0       	ldi	r24, 0x00	; 0
 4e8:	0f 90       	pop	r0
 4ea:	0f 90       	pop	r0
 4ec:	df 91       	pop	r29
 4ee:	cf 91       	pop	r28
 4f0:	08 95       	ret

000004f2 <uart_init>:
 4f2:	cf 93       	push	r28
 4f4:	df 93       	push	r29
 4f6:	00 d0       	rcall	.+0      	; 0x4f8 <uart_init+0x6>
 4f8:	cd b7       	in	r28, 0x3d	; 61
 4fa:	de b7       	in	r29, 0x3e	; 62
 4fc:	87 e6       	ldi	r24, 0x67	; 103
 4fe:	90 e0       	ldi	r25, 0x00	; 0
 500:	9a 83       	std	Y+2, r25	; 0x02
 502:	89 83       	std	Y+1, r24	; 0x01
 504:	85 ec       	ldi	r24, 0xC5	; 197
 506:	90 e0       	ldi	r25, 0x00	; 0
 508:	29 81       	ldd	r18, Y+1	; 0x01
 50a:	3a 81       	ldd	r19, Y+2	; 0x02
 50c:	23 2f       	mov	r18, r19
 50e:	33 27       	eor	r19, r19
 510:	fc 01       	movw	r30, r24
 512:	20 83       	st	Z, r18
 514:	84 ec       	ldi	r24, 0xC4	; 196
 516:	90 e0       	ldi	r25, 0x00	; 0
 518:	29 81       	ldd	r18, Y+1	; 0x01
 51a:	fc 01       	movw	r30, r24
 51c:	20 83       	st	Z, r18
 51e:	81 ec       	ldi	r24, 0xC1	; 193
 520:	90 e0       	ldi	r25, 0x00	; 0
 522:	28 e1       	ldi	r18, 0x18	; 24
 524:	fc 01       	movw	r30, r24
 526:	20 83       	st	Z, r18
 528:	82 ec       	ldi	r24, 0xC2	; 194
 52a:	90 e0       	ldi	r25, 0x00	; 0
 52c:	26 e0       	ldi	r18, 0x06	; 6
 52e:	fc 01       	movw	r30, r24
 530:	20 83       	st	Z, r18
 532:	00 00       	nop
 534:	0f 90       	pop	r0
 536:	0f 90       	pop	r0
 538:	df 91       	pop	r29
 53a:	cf 91       	pop	r28
 53c:	08 95       	ret

0000053e <uart_init_isr>:
 53e:	cf 93       	push	r28
 540:	df 93       	push	r29
 542:	cd b7       	in	r28, 0x3d	; 61
 544:	de b7       	in	r29, 0x3e	; 62
 546:	d5 df       	rcall	.-86     	; 0x4f2 <uart_init>
 548:	81 ec       	ldi	r24, 0xC1	; 193
 54a:	90 e0       	ldi	r25, 0x00	; 0
 54c:	21 ec       	ldi	r18, 0xC1	; 193
 54e:	30 e0       	ldi	r19, 0x00	; 0
 550:	f9 01       	movw	r30, r18
 552:	20 81       	ld	r18, Z
 554:	20 62       	ori	r18, 0x20	; 32
 556:	fc 01       	movw	r30, r24
 558:	20 83       	st	Z, r18
 55a:	00 00       	nop
 55c:	df 91       	pop	r29
 55e:	cf 91       	pop	r28
 560:	08 95       	ret

00000562 <uart_send_isr>:
 562:	cf 93       	push	r28
 564:	df 93       	push	r29
 566:	00 d0       	rcall	.+0      	; 0x568 <uart_send_isr+0x6>
 568:	00 d0       	rcall	.+0      	; 0x56a <uart_send_isr+0x8>
 56a:	00 d0       	rcall	.+0      	; 0x56c <uart_send_isr+0xa>
 56c:	cd b7       	in	r28, 0x3d	; 61
 56e:	de b7       	in	r29, 0x3e	; 62
 570:	9e 83       	std	Y+6, r25	; 0x06
 572:	8d 83       	std	Y+5, r24	; 0x05
 574:	8d 81       	ldd	r24, Y+5	; 0x05
 576:	9e 81       	ldd	r25, Y+6	; 0x06
 578:	7f d0       	rcall	.+254    	; 0x678 <strlen>
 57a:	9c 83       	std	Y+4, r25	; 0x04
 57c:	8b 83       	std	Y+3, r24	; 0x03
 57e:	1a 82       	std	Y+2, r1	; 0x02
 580:	19 82       	std	Y+1, r1	; 0x01
 582:	18 c0       	rjmp	.+48     	; 0x5b4 <uart_send_isr+0x52>
 584:	89 81       	ldd	r24, Y+1	; 0x01
 586:	9a 81       	ldd	r25, Y+2	; 0x02
 588:	2d 81       	ldd	r18, Y+5	; 0x05
 58a:	3e 81       	ldd	r19, Y+6	; 0x06
 58c:	82 0f       	add	r24, r18
 58e:	93 1f       	adc	r25, r19
 590:	fc 01       	movw	r30, r24
 592:	80 81       	ld	r24, Z
 594:	2f df       	rcall	.-418    	; 0x3f4 <buff_put>
 596:	81 30       	cpi	r24, 0x01	; 1
 598:	41 f4       	brne	.+16     	; 0x5aa <uart_send_isr+0x48>
 59a:	89 81       	ldd	r24, Y+1	; 0x01
 59c:	9a 81       	ldd	r25, Y+2	; 0x02
 59e:	9c 01       	movw	r18, r24
 5a0:	2f 5f       	subi	r18, 0xFF	; 255
 5a2:	3f 4f       	sbci	r19, 0xFF	; 255
 5a4:	3a 83       	std	Y+2, r19	; 0x02
 5a6:	29 83       	std	Y+1, r18	; 0x01
 5a8:	17 c0       	rjmp	.+46     	; 0x5d8 <uart_send_isr+0x76>
 5aa:	89 81       	ldd	r24, Y+1	; 0x01
 5ac:	9a 81       	ldd	r25, Y+2	; 0x02
 5ae:	01 96       	adiw	r24, 0x01	; 1
 5b0:	9a 83       	std	Y+2, r25	; 0x02
 5b2:	89 83       	std	Y+1, r24	; 0x01
 5b4:	29 81       	ldd	r18, Y+1	; 0x01
 5b6:	3a 81       	ldd	r19, Y+2	; 0x02
 5b8:	8b 81       	ldd	r24, Y+3	; 0x03
 5ba:	9c 81       	ldd	r25, Y+4	; 0x04
 5bc:	28 17       	cp	r18, r24
 5be:	39 07       	cpc	r19, r25
 5c0:	0c f3       	brlt	.-62     	; 0x584 <uart_send_isr+0x22>
 5c2:	80 ec       	ldi	r24, 0xC0	; 192
 5c4:	90 e0       	ldi	r25, 0x00	; 0
 5c6:	20 ec       	ldi	r18, 0xC0	; 192
 5c8:	30 e0       	ldi	r19, 0x00	; 0
 5ca:	f9 01       	movw	r30, r18
 5cc:	20 81       	ld	r18, Z
 5ce:	20 62       	ori	r18, 0x20	; 32
 5d0:	fc 01       	movw	r30, r24
 5d2:	20 83       	st	Z, r18
 5d4:	80 e0       	ldi	r24, 0x00	; 0
 5d6:	90 e0       	ldi	r25, 0x00	; 0
 5d8:	26 96       	adiw	r28, 0x06	; 6
 5da:	0f b6       	in	r0, 0x3f	; 63
 5dc:	f8 94       	cli
 5de:	de bf       	out	0x3e, r29	; 62
 5e0:	0f be       	out	0x3f, r0	; 63
 5e2:	cd bf       	out	0x3d, r28	; 61
 5e4:	df 91       	pop	r29
 5e6:	cf 91       	pop	r28
 5e8:	08 95       	ret

000005ea <__vector_21>:


ISR(USART0_UDRE_vect){
 5ea:	1f 92       	push	r1
 5ec:	0f 92       	push	r0
 5ee:	00 90 5f 00 	lds	r0, 0x005F	; 0x80005f <__TEXT_REGION_LENGTH__+0x7e005f>
 5f2:	0f 92       	push	r0
 5f4:	11 24       	eor	r1, r1
 5f6:	00 90 5b 00 	lds	r0, 0x005B	; 0x80005b <__TEXT_REGION_LENGTH__+0x7e005b>
 5fa:	0f 92       	push	r0
 5fc:	2f 93       	push	r18
 5fe:	3f 93       	push	r19
 600:	4f 93       	push	r20
 602:	5f 93       	push	r21
 604:	6f 93       	push	r22
 606:	7f 93       	push	r23
 608:	8f 93       	push	r24
 60a:	9f 93       	push	r25
 60c:	af 93       	push	r26
 60e:	bf 93       	push	r27
 610:	ef 93       	push	r30
 612:	ff 93       	push	r31
 614:	cf 93       	push	r28
 616:	df 93       	push	r29
 618:	1f 92       	push	r1
 61a:	cd b7       	in	r28, 0x3d	; 61
 61c:	de b7       	in	r29, 0x3e	; 62
    unsigned char pByte;
    if (buff_get(&pByte) == 0) {
 61e:	ce 01       	movw	r24, r28
 620:	01 96       	adiw	r24, 0x01	; 1
 622:	2d df       	rcall	.-422    	; 0x47e <buff_get>
 624:	88 23       	and	r24, r24
 626:	31 f4       	brne	.+12     	; 0x634 <__vector_21+0x4a>
        UDR0 = pByte;
 628:	86 ec       	ldi	r24, 0xC6	; 198
 62a:	90 e0       	ldi	r25, 0x00	; 0
 62c:	29 81       	ldd	r18, Y+1	; 0x01
 62e:	fc 01       	movw	r30, r24
 630:	20 83       	st	Z, r18
    }else {
        UCSR0A &= ~(1 << UDRE0);
    }
}
 632:	09 c0       	rjmp	.+18     	; 0x646 <__vector_21+0x5c>
ISR(USART0_UDRE_vect){
    unsigned char pByte;
    if (buff_get(&pByte) == 0) {
        UDR0 = pByte;
    }else {
        UCSR0A &= ~(1 << UDRE0);
 634:	80 ec       	ldi	r24, 0xC0	; 192
 636:	90 e0       	ldi	r25, 0x00	; 0
 638:	20 ec       	ldi	r18, 0xC0	; 192
 63a:	30 e0       	ldi	r19, 0x00	; 0
 63c:	f9 01       	movw	r30, r18
 63e:	20 81       	ld	r18, Z
 640:	2f 7d       	andi	r18, 0xDF	; 223
 642:	fc 01       	movw	r30, r24
 644:	20 83       	st	Z, r18
    }
}
 646:	00 00       	nop
 648:	0f 90       	pop	r0
 64a:	df 91       	pop	r29
 64c:	cf 91       	pop	r28
 64e:	ff 91       	pop	r31
 650:	ef 91       	pop	r30
 652:	bf 91       	pop	r27
 654:	af 91       	pop	r26
 656:	9f 91       	pop	r25
 658:	8f 91       	pop	r24
 65a:	7f 91       	pop	r23
 65c:	6f 91       	pop	r22
 65e:	5f 91       	pop	r21
 660:	4f 91       	pop	r20
 662:	3f 91       	pop	r19
 664:	2f 91       	pop	r18
 666:	0f 90       	pop	r0
 668:	00 92 5b 00 	sts	0x005B, r0	; 0x80005b <__TEXT_REGION_LENGTH__+0x7e005b>
 66c:	0f 90       	pop	r0
 66e:	00 92 5f 00 	sts	0x005F, r0	; 0x80005f <__TEXT_REGION_LENGTH__+0x7e005f>
 672:	0f 90       	pop	r0
 674:	1f 90       	pop	r1
 676:	18 95       	reti

00000678 <strlen>:
 678:	fc 01       	movw	r30, r24
 67a:	01 90       	ld	r0, Z+
 67c:	00 20       	and	r0, r0
 67e:	e9 f7       	brne	.-6      	; 0x67a <strlen+0x2>
 680:	80 95       	com	r24
 682:	90 95       	com	r25
 684:	8e 0f       	add	r24, r30
 686:	9f 1f       	adc	r25, r31
 688:	08 95       	ret

0000068a <_exit>:
 68a:	f8 94       	cli

0000068c <__stop_program>:
 68c:	ff cf       	rjmp	.-2      	; 0x68c <__stop_program>
